; ModuleID = '5/239.c'
source_filename = "5/239.c"
target datalayout = "e-m:e-p270:32:32-p271:32:32-p272:64:64-i64:64-f80:128-n8:16:32:64-S128"
target triple = "x86_64-pc-linux-gnu"

@.str = private unnamed_addr constant [4 x i8] c"%lf\00", align 1
@.str.1 = private unnamed_addr constant [3 x i8] c"%s\00", align 1
@.str.2 = private unnamed_addr constant [6 x i8] c"error\00", align 1
@.str.3 = private unnamed_addr constant [4 x i8] c"yes\00", align 1
@.str.4 = private unnamed_addr constant [3 x i8] c"no\00", align 1

; Function Attrs: noinline nounwind uwtable
define dso_local i32 @main() #0 {
  %1 = alloca i32, align 4
  %2 = alloca double, align 8
  %3 = alloca double, align 8
  %4 = alloca i32, align 4
  %5 = alloca i32, align 4
  %6 = alloca i32, align 4
  %7 = alloca i32, align 4
  %8 = alloca i32, align 4
  %9 = alloca i32, align 4
  %10 = alloca [2 x [501 x i8]], align 16
  store i32 0, i32* %1, align 4
  store i32 0, i32* %7, align 4
  store i32 0, i32* %9, align 4
  %11 = call i32 (i8*, ...) @__isoc99_scanf(i8* getelementptr inbounds ([4 x i8], [4 x i8]* @.str, i64 0, i64 0), double* %3)
  store i32 0, i32* %4, align 4
  br label %12

12:                                               ; preds = %21, %0
  %13 = load i32, i32* %4, align 4
  %14 = icmp slt i32 %13, 2
  br i1 %14, label %15, label %24

15:                                               ; preds = %12
  %16 = load i32, i32* %4, align 4
  %17 = sext i32 %16 to i64
  %18 = getelementptr inbounds [2 x [501 x i8]], [2 x [501 x i8]]* %10, i64 0, i64 %17
  %19 = getelementptr inbounds [501 x i8], [501 x i8]* %18, i64 0, i64 0
  %20 = call i32 (i8*, ...) @__isoc99_scanf(i8* getelementptr inbounds ([3 x i8], [3 x i8]* @.str.1, i64 0, i64 0), i8* %19)
  br label %21

21:                                               ; preds = %15
  %22 = load i32, i32* %4, align 4
  %23 = add nsw i32 %22, 1
  store i32 %23, i32* %4, align 4
  br label %12

24:                                               ; preds = %12
  %25 = getelementptr inbounds [2 x [501 x i8]], [2 x [501 x i8]]* %10, i64 0, i64 0
  %26 = getelementptr inbounds [501 x i8], [501 x i8]* %25, i64 0, i64 0
  %27 = call i64 @strlen(i8* %26) #3
  %28 = trunc i64 %27 to i32
  store i32 %28, i32* %5, align 4
  %29 = getelementptr inbounds [2 x [501 x i8]], [2 x [501 x i8]]* %10, i64 0, i64 1
  %30 = getelementptr inbounds [501 x i8], [501 x i8]* %29, i64 0, i64 0
  %31 = call i64 @strlen(i8* %30) #3
  %32 = trunc i64 %31 to i32
  store i32 %32, i32* %6, align 4
  %33 = load i32, i32* %5, align 4
  %34 = load i32, i32* %6, align 4
  %35 = icmp ne i32 %33, %34
  br i1 %35, label %36, label %38

36:                                               ; preds = %24
  %37 = call i32 (i8*, ...) @printf(i8* getelementptr inbounds ([6 x i8], [6 x i8]* @.str.2, i64 0, i64 0))
  br label %153

38:                                               ; preds = %24
  store i32 0, i32* %8, align 4
  br label %39

39:                                               ; preds = %129, %38
  %40 = load i32, i32* %8, align 4
  %41 = load i32, i32* %5, align 4
  %42 = icmp slt i32 %40, %41
  br i1 %42, label %43, label %132

43:                                               ; preds = %39
  %44 = getelementptr inbounds [2 x [501 x i8]], [2 x [501 x i8]]* %10, i64 0, i64 0
  %45 = load i32, i32* %8, align 4
  %46 = sext i32 %45 to i64
  %47 = getelementptr inbounds [501 x i8], [501 x i8]* %44, i64 0, i64 %46
  %48 = load i8, i8* %47, align 1
  %49 = sext i8 %48 to i32
  %50 = icmp ne i32 %49, 65
  br i1 %50, label %51, label %110

51:                                               ; preds = %43
  %52 = getelementptr inbounds [2 x [501 x i8]], [2 x [501 x i8]]* %10, i64 0, i64 0
  %53 = load i32, i32* %8, align 4
  %54 = sext i32 %53 to i64
  %55 = getelementptr inbounds [501 x i8], [501 x i8]* %52, i64 0, i64 %54
  %56 = load i8, i8* %55, align 1
  %57 = sext i8 %56 to i32
  %58 = icmp ne i32 %57, 84
  br i1 %58, label %59, label %110

59:                                               ; preds = %51
  %60 = getelementptr inbounds [2 x [501 x i8]], [2 x [501 x i8]]* %10, i64 0, i64 0
  %61 = load i32, i32* %8, align 4
  %62 = sext i32 %61 to i64
  %63 = getelementptr inbounds [501 x i8], [501 x i8]* %60, i64 0, i64 %62
  %64 = load i8, i8* %63, align 1
  %65 = sext i8 %64 to i32
  %66 = icmp ne i32 %65, 71
  br i1 %66, label %67, label %110

67:                                               ; preds = %59
  %68 = getelementptr inbounds [2 x [501 x i8]], [2 x [501 x i8]]* %10, i64 0, i64 0
  %69 = load i32, i32* %8, align 4
  %70 = sext i32 %69 to i64
  %71 = getelementptr inbounds [501 x i8], [501 x i8]* %68, i64 0, i64 %70
  %72 = load i8, i8* %71, align 1
  %73 = sext i8 %72 to i32
  %74 = icmp ne i32 %73, 67
  br i1 %74, label %75, label %110

75:                                               ; preds = %67
  %76 = getelementptr inbounds [2 x [501 x i8]], [2 x [501 x i8]]* %10, i64 0, i64 1
  %77 = load i32, i32* %8, align 4
  %78 = sext i32 %77 to i64
  %79 = getelementptr inbounds [501 x i8], [501 x i8]* %76, i64 0, i64 %78
  %80 = load i8, i8* %79, align 1
  %81 = sext i8 %80 to i32
  %82 = icmp ne i32 %81, 65
  br i1 %82, label %83, label %110

83:                                               ; preds = %75
  %84 = getelementptr inbounds [2 x [501 x i8]], [2 x [501 x i8]]* %10, i64 0, i64 1
  %85 = load i32, i32* %8, align 4
  %86 = sext i32 %85 to i64
  %87 = getelementptr inbounds [501 x i8], [501 x i8]* %84, i64 0, i64 %86
  %88 = load i8, i8* %87, align 1
  %89 = sext i8 %88 to i32
  %90 = icmp ne i32 %89, 84
  br i1 %90, label %91, label %110

91:                                               ; preds = %83
  %92 = getelementptr inbounds [2 x [501 x i8]], [2 x [501 x i8]]* %10, i64 0, i64 1
  %93 = load i32, i32* %8, align 4
  %94 = sext i32 %93 to i64
  %95 = getelementptr inbounds [501 x i8], [501 x i8]* %92, i64 0, i64 %94
  %96 = load i8, i8* %95, align 1
  %97 = sext i8 %96 to i32
  %98 = icmp ne i32 %97, 71
  br i1 %98, label %99, label %110

99:                                               ; preds = %91
  %100 = getelementptr inbounds [2 x [501 x i8]], [2 x [501 x i8]]* %10, i64 0, i64 1
  %101 = load i32, i32* %8, align 4
  %102 = sext i32 %101 to i64
  %103 = getelementptr inbounds [501 x i8], [501 x i8]* %100, i64 0, i64 %102
  %104 = load i8, i8* %103, align 1
  %105 = sext i8 %104 to i32
  %106 = icmp ne i32 %105, 67
  br i1 %106, label %107, label %110

107:                                              ; preds = %99
  %108 = load i32, i32* %7, align 4
  %109 = add nsw i32 %108, 1
  store i32 %109, i32* %7, align 4
  br label %128

110:                                              ; preds = %99, %91, %83, %75, %67, %59, %51, %43
  %111 = getelementptr inbounds [2 x [501 x i8]], [2 x [501 x i8]]* %10, i64 0, i64 0
  %112 = load i32, i32* %8, align 4
  %113 = sext i32 %112 to i64
  %114 = getelementptr inbounds [501 x i8], [501 x i8]* %111, i64 0, i64 %113
  %115 = load i8, i8* %114, align 1
  %116 = sext i8 %115 to i32
  %117 = getelementptr inbounds [2 x [501 x i8]], [2 x [501 x i8]]* %10, i64 0, i64 1
  %118 = load i32, i32* %8, align 4
  %119 = sext i32 %118 to i64
  %120 = getelementptr inbounds [501 x i8], [501 x i8]* %117, i64 0, i64 %119
  %121 = load i8, i8* %120, align 1
  %122 = sext i8 %121 to i32
  %123 = icmp eq i32 %116, %122
  br i1 %123, label %124, label %127

124:                                              ; preds = %110
  %125 = load i32, i32* %9, align 4
  %126 = add nsw i32 %125, 1
  store i32 %126, i32* %9, align 4
  br label %127

127:                                              ; preds = %124, %110
  br label %128

128:                                              ; preds = %127, %107
  br label %129

129:                                              ; preds = %128
  %130 = load i32, i32* %8, align 4
  %131 = add nsw i32 %130, 1
  store i32 %131, i32* %8, align 4
  br label %39

132:                                              ; preds = %39
  %133 = load i32, i32* %7, align 4
  %134 = icmp ne i32 %133, 0
  br i1 %134, label %135, label %137

135:                                              ; preds = %132
  %136 = call i32 (i8*, ...) @printf(i8* getelementptr inbounds ([6 x i8], [6 x i8]* @.str.2, i64 0, i64 0))
  br label %152

137:                                              ; preds = %132
  %138 = load i32, i32* %9, align 4
  %139 = sitofp i32 %138 to double
  %140 = fmul double 1.000000e+00, %139
  %141 = load i32, i32* %5, align 4
  %142 = sitofp i32 %141 to double
  %143 = fdiv double %140, %142
  store double %143, double* %2, align 8
  %144 = load double, double* %2, align 8
  %145 = load double, double* %3, align 8
  %146 = fcmp ogt double %144, %145
  br i1 %146, label %147, label %149

147:                                              ; preds = %137
  %148 = call i32 (i8*, ...) @printf(i8* getelementptr inbounds ([4 x i8], [4 x i8]* @.str.3, i64 0, i64 0))
  br label %151

149:                                              ; preds = %137
  %150 = call i32 (i8*, ...) @printf(i8* getelementptr inbounds ([3 x i8], [3 x i8]* @.str.4, i64 0, i64 0))
  br label %151

151:                                              ; preds = %149, %147
  br label %152

152:                                              ; preds = %151, %135
  br label %153

153:                                              ; preds = %152, %36
  ret i32 0
}

declare dso_local i32 @__isoc99_scanf(i8*, ...) #1

; Function Attrs: nounwind readonly
declare dso_local i64 @strlen(i8*) #2

declare dso_local i32 @printf(i8*, ...) #1


!llvm.module.flags = !{!0}
!llvm.ident = !{!1}

!0 = !{i32 1, !"wchar_size", i32 4}
!1 = !{!"clang version 10.0.0-4ubuntu1 "}
